target datalayout = "e-m:e-p270:32:32-p271:32:32-p272:64:64-i64:64-i128:128-f80:128-n8:16:32:64-S128"
target triple = "x86_64-pc-linux-gnu"

%struct.stat = type { i64, i64, i64, i32, i32, i32, i32, i64, i64, i64, i64, %struct.timespec, %struct.timespec, %struct.timespec, [3 x i64] }
%struct.timespec = type { i64, i64 }

@.str.170 = private unnamed_addr constant [25 x i8] c"file \22%s\22 does not exist\00", align 1
@.str.171 = private unnamed_addr constant [115 x i8] c"This might mean you have a corrupted installation or identified the wrong directory with the invocation option -L.\00", align 1
@.str.172 = private unnamed_addr constant [31 x i8] c"could not access file \22%s\22: %m\00", align 1
@.str.173 = private unnamed_addr constant [32 x i8] c"file \22%s\22 is not a regular file\00", align 1

; Function Attrs: nounwind uwtable
define internal void @check_input(ptr noundef %0) #0 {
  %2 = alloca ptr, align 8
  %3 = alloca %struct.stat, align 8
  store ptr %0, ptr %2, align 8
  call void @llvm.lifetime.start.p0(i64 144, ptr %3) #10
  %4 = load ptr, ptr %2, align 8
  %5 = call i32 @stat(ptr noundef %4, ptr noundef %3) #10
  %6 = icmp ne i32 %5, 0
  br i1 %6, label %7, label %16

7:                                                ; preds = %1
  %8 = call ptr @__errno_location() #13
  %9 = load i32, ptr %8, align 4
  %10 = icmp eq i32 %9, 2
  br i1 %10, label %11, label %13

11:                                               ; preds = %7
  %12 = load ptr, ptr %2, align 8
  call void (i32, i32, ptr, ...) @pg_log_generic(i32 noundef 4, i32 noundef 0, ptr noundef @.str.170, ptr noundef %12)
  call void (i32, i32, ptr, ...) @pg_log_generic(i32 noundef 4, i32 noundef 2, ptr noundef @.str.171)
  br label %15

13:                                               ; preds = %7
  %14 = load ptr, ptr %2, align 8
  call void (i32, i32, ptr, ...) @pg_log_generic(i32 noundef 4, i32 noundef 0, ptr noundef @.str.172, ptr noundef %14)
  call void (i32, i32, ptr, ...) @pg_log_generic(i32 noundef 4, i32 noundef 2, ptr noundef @.str.171)
  br label %15

15:                                               ; preds = %13, %11
  call void @exit(i32 noundef 1) #12
  unreachable

16:                                               ; preds = %1
  %17 = getelementptr inbounds nuw %struct.stat, ptr %3, i32 0, i32 3
  %18 = load i32, ptr %17, align 8
  %19 = and i32 %18, 61440
  %20 = icmp eq i32 %19, 32768
  br i1 %20, label %23, label %21

21:                                               ; preds = %16
  %22 = load ptr, ptr %2, align 8
  call void (i32, i32, ptr, ...) @pg_log_generic(i32 noundef 4, i32 noundef 0, ptr noundef @.str.173, ptr noundef %22)
  call void (i32, i32, ptr, ...) @pg_log_generic(i32 noundef 4, i32 noundef 2, ptr noundef @.str.171)
  call void @exit(i32 noundef 1) #12
  unreachable

23:                                               ; preds = %16
  call void @llvm.lifetime.end.p0(i64 144, ptr %3) #10
  ret void
}