; Function Attrs: nounwind uwtable
define internal fastcc void @check_input(ptr noundef %0) unnamed_addr #0 {
  %2 = alloca %struct.stat, align 8
  call void @llvm.lifetime.start.p0(i64 144, ptr nonnull %2) #19
  %3 = call i32 @stat(ptr noundef %0, ptr noundef nonnull %2) #19
  %.not = icmp eq i32 %3, 0
  br i1 %.not, label %8, label %4

4:                                                ; preds = %1
  %5 = tail call ptr @__errno_location() #23
  %6 = load i32, ptr %5, align 4
  %7 = icmp eq i32 %6, 2
  %.str.170..str.172 = select i1 %7, ptr @.str.170, ptr @.str.172
  tail call void (i32, i32, ptr, ...) @pg_log_generic(i32 noundef 4, i32 noundef 0, ptr noundef nonnull %.str.170..str.172, ptr noundef %0) #19
  tail call void (i32, i32, ptr, ...) @pg_log_generic(i32 noundef 4, i32 noundef 2, ptr noundef nonnull @.str.171) #19
  tail call void @exit(i32 noundef 1) #20
  unreachable

8:                                                ; preds = %1
  %9 = getelementptr inbounds nuw i8, ptr %2, i64 24
  %10 = load i32, ptr %9, align 8
  %11 = and i32 %10, 61440
  %12 = icmp eq i32 %11, 32768
  br i1 %12, label %14, label %13

13:                                               ; preds = %8
  tail call void (i32, i32, ptr, ...) @pg_log_generic(i32 noundef 4, i32 noundef 0, ptr noundef nonnull @.str.173, ptr noundef %0) #19
  tail call void (i32, i32, ptr, ...) @pg_log_generic(i32 noundef 4, i32 noundef 2, ptr noundef nonnull @.str.171) #19
  tail call void @exit(i32 noundef 1) #20
  unreachable

14:                                               ; preds = %8
  call void @llvm.lifetime.end.p0(i64 144, ptr nonnull %2) #19
  ret void
}